; Function Attrs: nounwind uwtable
define dso_local void @llvm_debug_scope_push(ptr nocapture noundef %0, ptr noundef %1) local_unnamed_addr #0 {
  %3 = getelementptr inbounds i8, ptr %0, i64 352
  %4 = load ptr, ptr %3, align 8
  %.not.i = icmp eq ptr %4, null
  br i1 %.not.i, label %5, label %8

5:                                                ; preds = %2
  %6 = tail call ptr @calloc_arena(i64 noundef 72) #8
  %7 = getelementptr inbounds i8, ptr %6, i64 4
  store i32 8, ptr %7, align 4
  br label %10

8:                                                ; preds = %2
  %9 = getelementptr inbounds i8, ptr %4, i64 -8
  %.phi.trans.insert.i = getelementptr inbounds i8, ptr %4, i64 -4
  %.pre.i = load i32, ptr %.phi.trans.insert.i, align 4
  br label %10

10:                                               ; preds = %8, %5
  %11 = phi i32 [ %.pre.i, %8 ], [ 8, %5 ]
  %.0.i = phi ptr [ %9, %8 ], [ %6, %5 ]
  %12 = load i32, ptr %.0.i, align 4
  %13 = icmp eq i32 %12, %11
  br i1 %13, label %14, label %28

14:                                               ; preds = %10
  %15 = getelementptr inbounds i8, ptr %.0.i, i64 4
  %16 = shl i32 %11, 1
  %17 = zext i32 %16 to i64
  %18 = shl nuw nsw i64 %17, 3
  %19 = or disjoint i64 %18, 8
  %20 = tail call ptr @calloc_arena(i64 noundef %19) #8
  %21 = getelementptr inbounds i8, ptr %20, i64 4
  store i32 %16, ptr %21, align 4
  %22 = load i32, ptr %15, align 4
  %23 = zext i32 %22 to i64
  %24 = shl nuw nsw i64 %23, 3
  %25 = add nuw nsw i64 %24, 8
  tail call void @llvm.memcpy.p0.p0.i64(ptr noundef nonnull align 4 dereferenceable(1) %20, ptr noundef nonnull align 4 dereferenceable(1) %.0.i, i64 %25, i1 false)
  %26 = load i32, ptr %21, align 4
  %27 = shl i32 %26, 1
  store i32 %27, ptr %21, align 4
  %.pre18.i = load i32, ptr %20, align 4
  br label %28

28:                                               ; preds = %10, %14
  %29 = phi i32 [ %.pre18.i, %14 ], [ %12, %10 ]
  %.1.i = phi ptr [ %20, %14 ], [ %.0.i, %10 ]
  %30 = add i32 %29, 1
  store i32 %30, ptr %.1.i, align 4
  %31 = getelementptr inbounds i8, ptr %.1.i, i64 8
  store ptr %31, ptr %3, align 8
  %32 = load i32, ptr %.1.i, align 4
  %33 = add i32 %32, -1
  %34 = zext i32 %33 to i64
  %35 = getelementptr inbounds ptr, ptr %31, i64 %34
  store ptr %1, ptr %35, align 8
  ret void
}